; Function Attrs: nounwind sspstrong uwtable
define internal i64 @rb_hash_gt(i64 noundef %0, i64 noundef %1) #0 {
  %3 = alloca [2 x i64], align 16
  %4 = tail call i64 @rb_convert_type_with_id(i64 noundef %1, i32 noundef 8, ptr noundef nonnull @.str.2, i64 noundef 3297) #28
  %5 = inttoptr i64 %0 to ptr
  %6 = load i64, ptr %5, align 8, !tbaa !11
  %7 = and i64 %6, 32768
  %.not.i.i = icmp eq i64 %7, 0
  br i1 %.not.i.i, label %8, label %11

8:                                                ; preds = %2
  %9 = lshr i64 %6, 16
  %10 = and i64 %9, 15
  br label %RHASH_SIZE.exit

11:                                               ; preds = %2
  %12 = add i64 %0, 24
  %13 = inttoptr i64 %12 to ptr
  %14 = getelementptr inbounds nuw i8, ptr %13, i64 16
  %15 = load i64, ptr %14, align 8, !tbaa !49
  br label %RHASH_SIZE.exit

RHASH_SIZE.exit:                                  ; preds = %8, %11
  %.0.i = phi i64 [ %10, %8 ], [ %15, %11 ]
  %16 = inttoptr i64 %4 to ptr
  %17 = load i64, ptr %16, align 8, !tbaa !11
  %18 = and i64 %17, 32768
  %.not.i.i6 = icmp eq i64 %18, 0
  br i1 %.not.i.i6, label %19, label %22

19:                                               ; preds = %RHASH_SIZE.exit
  %20 = lshr i64 %17, 16
  %21 = and i64 %20, 15
  br label %RHASH_SIZE.exit8

22:                                               ; preds = %RHASH_SIZE.exit
  %23 = add i64 %4, 24
  %24 = inttoptr i64 %23 to ptr
  %25 = getelementptr inbounds nuw i8, ptr %24, i64 16
  %26 = load i64, ptr %25, align 8, !tbaa !49
  br label %RHASH_SIZE.exit8

RHASH_SIZE.exit8:                                 ; preds = %19, %22
  %.0.i7 = phi i64 [ %21, %19 ], [ %26, %22 ]
  %.not = icmp ugt i64 %.0.i, %.0.i7
  br i1 %.not, label %27, label %31

27:                                               ; preds = %RHASH_SIZE.exit8
  call void @llvm.lifetime.start.p0(i64 16, ptr nonnull %3) #28
  store i64 %0, ptr %3, align 16, !tbaa !7
  %28 = getelementptr inbounds nuw i8, ptr %3, i64 8
  store i64 20, ptr %28, align 8, !tbaa !7
  %29 = ptrtoint ptr %3 to i64
  call void @rb_hash_foreach(i64 noundef %4, ptr noundef @hash_le_i, i64 noundef %29)
  %30 = load i64, ptr %28, align 8, !tbaa !7
  call void @llvm.lifetime.end.p0(i64 16, ptr nonnull %3) #28
  br label %31

31:                                               ; preds = %RHASH_SIZE.exit8, %27
  %.0 = phi i64 [ %30, %27 ], [ 0, %RHASH_SIZE.exit8 ]
  ret i64 %.0
}